target datalayout = "e-m:e-p270:32:32-p271:32:32-p272:64:64-i64:64-i128:128-f80:128-n8:16:32:64-S128"
target triple = "x86_64-pc-linux-gnu"

%struct.H5D_farray_filt_elmt_t = type { i64, i32, i32 }

@.str.5 = private unnamed_addr constant [14 x i8] c"Element #%lu:\00", align 1
@.str.7 = private unnamed_addr constant [1 x i8] zeroinitializer, align 1
@.str.12 = private unnamed_addr constant [24 x i8] c"%*s%-*s {%lu, %u, %0x}\0A\00", align 1

; Function Attrs: nounwind uwtable
define internal i32 @H5D__farray_filt_debug(ptr noundef %0, i32 noundef %1, i32 noundef %2, i64 noundef %3, ptr noundef %4) #0 {
  %6 = alloca ptr, align 8
  %7 = alloca i32, align 4
  %8 = alloca i32, align 4
  %9 = alloca i64, align 8
  %10 = alloca ptr, align 8
  %11 = alloca ptr, align 8
  %12 = alloca [128 x i8], align 16
  store ptr %0, ptr %6, align 8
  store i32 %1, ptr %7, align 4
  store i32 %2, ptr %8, align 4
  store i64 %3, ptr %9, align 8
  store ptr %4, ptr %10, align 8
  %13 = load ptr, ptr %10, align 8
  store ptr %13, ptr %11, align 8
  %14 = getelementptr inbounds [128 x i8], ptr %12, i64 0, i64 0
  %15 = load i64, ptr %9, align 8
  %16 = call i32 (ptr, i64, ptr, ...) @snprintf(ptr noundef %14, i64 noundef 128, ptr noundef @.str.5, i64 noundef %15) #5
  %17 = load ptr, ptr %6, align 8
  %18 = load i32, ptr %7, align 4
  %19 = load i32, ptr %8, align 4
  %20 = getelementptr inbounds [128 x i8], ptr %12, i64 0, i64 0
  %21 = load ptr, ptr %11, align 8
  %22 = getelementptr inbounds %struct.H5D_farray_filt_elmt_t, ptr %21, i32 0, i32 0
  %23 = load i64, ptr %22, align 8
  %24 = load ptr, ptr %11, align 8
  %25 = getelementptr inbounds %struct.H5D_farray_filt_elmt_t, ptr %24, i32 0, i32 1
  %26 = load i32, ptr %25, align 8
  %27 = load ptr, ptr %11, align 8
  %28 = getelementptr inbounds %struct.H5D_farray_filt_elmt_t, ptr %27, i32 0, i32 2
  %29 = load i32, ptr %28, align 4
  %30 = call i32 (ptr, ptr, ...) @fprintf(ptr noundef %17, ptr noundef @.str.12, i32 noundef %18, ptr noundef @.str.7, i32 noundef %19, ptr noundef %20, i64 noundef %23, i32 noundef %26, i32 noundef %29) #5
  ret i32 0
}