; Function Attrs: nofree nounwind uwtable
define internal noundef i32 @H5D__farray_filt_debug(ptr nocapture noundef %0, i32 noundef %1, i32 noundef %2, i64 noundef %3, ptr nocapture noundef readonly %4) #5 {
  %6 = alloca [128 x i8], align 16
  %7 = call i32 (ptr, i64, ptr, ...) @snprintf(ptr noundef nonnull dereferenceable(1) %6, i64 noundef 128, ptr noundef nonnull @.str.5, i64 noundef %3) #11
  %8 = load i64, ptr %4, align 8
  %9 = getelementptr inbounds i8, ptr %4, i64 8
  %10 = load i32, ptr %9, align 8
  %11 = getelementptr inbounds i8, ptr %4, i64 12
  %12 = load i32, ptr %11, align 4
  %13 = call i32 (ptr, ptr, ...) @fprintf(ptr noundef %0, ptr noundef nonnull @.str.12, i32 noundef %1, ptr noundef nonnull @.str.7, i32 noundef %2, ptr noundef nonnull %6, i64 noundef %8, i32 noundef %10, i32 noundef %12) #11
  ret i32 0
}